target datalayout = "e-m:e-p270:32:32-p271:32:32-p272:64:64-i64:64-i128:128-f80:128-n8:16:32:64-S128"
target triple = "x86_64-pc-linux-gnu"

%struct.WC_DerCertList = type { ptr, i32, ptr }

; Function Attrs: nounwind uwtable
define void @wc_FreeCertList(ptr noundef %0, ptr noundef %1) #0 {
  %3 = alloca ptr, align 8
  %4 = alloca ptr, align 8
  %5 = alloca ptr, align 8
  %6 = alloca ptr, align 8
  %7 = alloca i32, align 4
  %8 = alloca ptr, align 8
  %9 = alloca ptr, align 8
  store ptr %0, ptr %3, align 8, !tbaa !54
  store ptr %1, ptr %4, align 8, !tbaa !3
  call void @llvm.lifetime.start.p0(i64 8, ptr %5) #7
  %10 = load ptr, ptr %3, align 8, !tbaa !54
  store ptr %10, ptr %5, align 8, !tbaa !54
  call void @llvm.lifetime.start.p0(i64 8, ptr %6) #7
  %11 = load ptr, ptr %3, align 8, !tbaa !54
  %12 = icmp eq ptr %11, null
  br i1 %12, label %13, label %14

13:                                               ; preds = %2
  store i32 1, ptr %7, align 4
  br label %44

14:                                               ; preds = %2
  br label %15

15:                                               ; preds = %41, %14
  %16 = load ptr, ptr %5, align 8, !tbaa !54
  %17 = icmp ne ptr %16, null
  br i1 %17, label %18, label %43

18:                                               ; preds = %15
  %19 = load ptr, ptr %5, align 8, !tbaa !54
  %20 = getelementptr inbounds nuw %struct.WC_DerCertList, ptr %19, i32 0, i32 2
  %21 = load ptr, ptr %20, align 8, !tbaa !56
  store ptr %21, ptr %6, align 8, !tbaa !54
  br label %22

22:                                               ; preds = %18
  call void @llvm.lifetime.start.p0(i64 8, ptr %8) #7
  %23 = load ptr, ptr %5, align 8, !tbaa !54
  %24 = getelementptr inbounds nuw %struct.WC_DerCertList, ptr %23, i32 0, i32 0
  %25 = load ptr, ptr %24, align 8, !tbaa !58
  store ptr %25, ptr %8, align 8, !tbaa !3
  %26 = load ptr, ptr %8, align 8, !tbaa !3
  %27 = icmp ne ptr %26, null
  br i1 %27, label %28, label %30

28:                                               ; preds = %22
  %29 = load ptr, ptr %8, align 8, !tbaa !3
  call void @wolfSSL_Free(ptr noundef %29)
  br label %30

30:                                               ; preds = %28, %22
  call void @llvm.lifetime.end.p0(i64 8, ptr %8) #7
  br label %31

31:                                               ; preds = %30
  br label %32

32:                                               ; preds = %31
  br label %33

33:                                               ; preds = %32
  call void @llvm.lifetime.start.p0(i64 8, ptr %9) #7
  %34 = load ptr, ptr %5, align 8, !tbaa !54
  store ptr %34, ptr %9, align 8, !tbaa !3
  %35 = load ptr, ptr %9, align 8, !tbaa !3
  %36 = icmp ne ptr %35, null
  br i1 %36, label %37, label %39

37:                                               ; preds = %33
  %38 = load ptr, ptr %9, align 8, !tbaa !3
  call void @wolfSSL_Free(ptr noundef %38)
  br label %39

39:                                               ; preds = %37, %33
  call void @llvm.lifetime.end.p0(i64 8, ptr %9) #7
  br label %40

40:                                               ; preds = %39
  br label %41

41:                                               ; preds = %40
  %42 = load ptr, ptr %6, align 8, !tbaa !54
  store ptr %42, ptr %5, align 8, !tbaa !54
  br label %15, !llvm.loop !59

43:                                               ; preds = %15
  store i32 0, ptr %7, align 4
  br label %44

44:                                               ; preds = %43, %13
  call void @llvm.lifetime.end.p0(i64 8, ptr %6) #7
  call void @llvm.lifetime.end.p0(i64 8, ptr %5) #7
  %45 = load i32, ptr %7, align 4
  switch i32 %45, label %47 [
    i32 0, label %46
    i32 1, label %46
  ]

46:                                               ; preds = %44, %44
  ret void

47:                                               ; preds = %44
  unreachable
}