; Function Attrs: nounwind uwtable
define void @wc_FreeCertList(ptr noundef %0, ptr noundef readnone captures(none) %1) local_unnamed_addr #0 {
  %3 = icmp eq ptr %0, null
  br i1 %3, label %.loopexit, label %.preheader

.preheader:                                       ; preds = %2, %8
  %.014 = phi ptr [ %5, %8 ], [ %0, %2 ]
  %4 = getelementptr inbounds nuw i8, ptr %.014, i64 16
  %5 = load ptr, ptr %4, align 8, !tbaa !44
  %6 = load ptr, ptr %.014, align 8, !tbaa !47
  %.not13 = icmp eq ptr %6, null
  br i1 %.not13, label %8, label %7

7:                                                ; preds = %.preheader
  tail call void @wolfSSL_Free(ptr noundef nonnull %6) #9
  br label %8

8:                                                ; preds = %.preheader, %7
  tail call void @wolfSSL_Free(ptr noundef nonnull %.014) #9
  %.not = icmp eq ptr %5, null
  br i1 %.not, label %.loopexit, label %.preheader, !llvm.loop !48

.loopexit:                                        ; preds = %8, %2
  ret void
}